target datalayout = "e-m:e-p270:32:32-p271:32:32-p272:64:64-i64:64-i128:128-f80:128-n8:16:32:64-S128"
target triple = "x86_64-pc-linux-gnu"

%struct.__va_list_tag = type { i32, i32, ptr, ptr }

@c_new_error = internal global ptr null, align 8
@c_set_error_debug = internal global ptr null, align 8
@c_vset_error = internal global ptr null, align 8

; Function Attrs: nounwind uwtable
define internal void @p_set_error(i32 noundef %0, i32 noundef %1, ptr noundef %2, i32 noundef %3, ptr noundef %4, ptr noundef %5, ...) #0 {
  %7 = alloca i32, align 4
  %8 = alloca i32, align 4
  %9 = alloca ptr, align 8
  %10 = alloca i32, align 4
  %11 = alloca ptr, align 8
  %12 = alloca ptr, align 8
  %13 = alloca [1 x %struct.__va_list_tag], align 16
  store i32 %0, ptr %7, align 4, !tbaa !31
  store i32 %1, ptr %8, align 4, !tbaa !31
  store ptr %2, ptr %9, align 8, !tbaa !32
  store i32 %3, ptr %10, align 4, !tbaa !31
  store ptr %4, ptr %11, align 8, !tbaa !32
  store ptr %5, ptr %12, align 8, !tbaa !32
  call void @llvm.lifetime.start.p0(i64 24, ptr %13) #8
  %14 = getelementptr inbounds [1 x %struct.__va_list_tag], ptr %13, i64 0, i64 0
  call void @llvm.va_start.p0(ptr %14)
  %15 = load ptr, ptr @c_new_error, align 8, !tbaa !13
  call void %15(ptr noundef null)
  %16 = load ptr, ptr @c_set_error_debug, align 8, !tbaa !13
  %17 = load ptr, ptr %9, align 8, !tbaa !32
  %18 = load i32, ptr %10, align 4, !tbaa !31
  %19 = load ptr, ptr %11, align 8, !tbaa !32
  call void %16(ptr noundef null, ptr noundef %17, i32 noundef %18, ptr noundef %19)
  %20 = load ptr, ptr @c_vset_error, align 8, !tbaa !13
  %21 = load i32, ptr %7, align 4, !tbaa !31
  %22 = sext i32 %21 to i64
  %23 = and i64 %22, 255
  %24 = shl i64 %23, 23
  %25 = load i32, ptr %8, align 4, !tbaa !31
  %26 = sext i32 %25 to i64
  %27 = and i64 %26, 8388607
  %28 = or i64 %24, %27
  %29 = trunc i64 %28 to i32
  %30 = load ptr, ptr %12, align 8, !tbaa !32
  %31 = getelementptr inbounds [1 x %struct.__va_list_tag], ptr %13, i64 0, i64 0
  call void %20(ptr noundef null, i32 noundef %29, ptr noundef %30, ptr noundef %31)
  %32 = getelementptr inbounds [1 x %struct.__va_list_tag], ptr %13, i64 0, i64 0
  call void @llvm.va_end.p0(ptr %32)
  call void @llvm.lifetime.end.p0(i64 24, ptr %13) #8
  ret void
}