; Function Attrs: nounwind uwtable
define internal void @p_set_error(i32 %0, i32 noundef range(i32 1, 4) %1, ptr noundef %2, i32 noundef range(i32 166, 330) %3, ptr noundef %4, ptr readnone captures(none) %5, ...) unnamed_addr #0 {
  %7 = alloca [1 x %struct.__va_list_tag], align 16
  call void @llvm.lifetime.start.p0(i64 24, ptr nonnull %7) #12
  call void @llvm.va_start.p0(ptr nonnull %7)
  %8 = load ptr, ptr @c_new_error, align 8, !tbaa !11
  call void %8(ptr noundef null) #12
  %9 = load ptr, ptr @c_set_error_debug, align 8, !tbaa !11
  call void %9(ptr noundef null, ptr noundef %2, i32 noundef %3, ptr noundef %4) #12
  %10 = load ptr, ptr @c_vset_error, align 8, !tbaa !11
  %11 = or disjoint i32 %1, 478150656
  call void %10(ptr noundef null, i32 noundef %11, ptr noundef null, ptr noundef nonnull %7) #12
  call void @llvm.va_end.p0(ptr nonnull %7)
  call void @llvm.lifetime.end.p0(i64 24, ptr nonnull %7) #12
  ret void
}